; Function Attrs: mustprogress uwtable
define void @_ZN2cv4gapi2ot5trackERKNS_6GFrameERKNS_6GArrayINS_5Rect_IiEEEERKNS5_IiEEf(ptr dead_on_unwind noalias writable sret(%"class.std::tuple") align 8 %0, ptr noundef nonnull readonly align 8 captures(none) dereferenceable(16) %1, ptr noundef nonnull readonly align 8 captures(none) dereferenceable(32) %2, ptr noundef nonnull readonly align 8 captures(none) dereferenceable(32) %3, float noundef %4) local_unnamed_addr #3 personality ptr @__gxx_personality_v0 {
  %6 = alloca %"class.cv::GFrame", align 8
  %7 = alloca %"class.cv::GArray.10", align 8
  %8 = alloca %"class.cv::GArray", align 8
  %9 = load ptr, ptr %1, align 8
  store ptr %9, ptr %6, align 8
  %10 = getelementptr inbounds nuw i8, ptr %6, i64 8
  %11 = getelementptr inbounds nuw i8, ptr %1, i64 8
  %12 = load ptr, ptr %11, align 8
  store ptr %12, ptr %10, align 8
  %.not.i.i.i.i = icmp eq ptr %12, null
  br i1 %.not.i.i.i.i, label %_ZN2cv6GFrameC2ERKS0_.exit, label %13

13:                                               ; preds = %5
  %14 = getelementptr inbounds nuw i8, ptr %12, i64 8
  %15 = load i8, ptr @__libc_single_threaded, align 1
  %.not.i.i.i.i.i = icmp eq i8 %15, 0
  br i1 %.not.i.i.i.i.i, label %19, label %16

16:                                               ; preds = %13
  %17 = load i32, ptr %14, align 4
  %18 = add nsw i32 %17, 1
  store i32 %18, ptr %14, align 4
  br label %_ZN2cv6GFrameC2ERKS0_.exit

19:                                               ; preds = %13
  %20 = atomicrmw volatile add ptr %14, i32 1 acq_rel, align 4
  br label %_ZN2cv6GFrameC2ERKS0_.exit

_ZN2cv6GFrameC2ERKS0_.exit:                       ; preds = %5, %16, %19
  %21 = load ptr, ptr %2, align 8
  store ptr %21, ptr %7, align 8
  %22 = getelementptr inbounds nuw i8, ptr %7, i64 8
  %23 = getelementptr inbounds nuw i8, ptr %2, i64 8
  %24 = load ptr, ptr %23, align 8
  store ptr %24, ptr %22, align 8
  %.not.i.i.i.i.i5 = icmp eq ptr %24, null
  br i1 %.not.i.i.i.i.i5, label %_ZNSt10shared_ptrIN2cv7GOriginEEC2ERKS2_.exit.i.i, label %25

25:                                               ; preds = %_ZN2cv6GFrameC2ERKS0_.exit
  %26 = getelementptr inbounds nuw i8, ptr %24, i64 8
  %27 = load i8, ptr @__libc_single_threaded, align 1
  %.not.i.i.i.i.i.i = icmp eq i8 %27, 0
  br i1 %.not.i.i.i.i.i.i, label %31, label %28

28:                                               ; preds = %25
  %29 = load i32, ptr %26, align 4
  %30 = add nsw i32 %29, 1
  store i32 %30, ptr %26, align 4
  br label %_ZNSt10shared_ptrIN2cv7GOriginEEC2ERKS2_.exit.i.i

31:                                               ; preds = %25
  %32 = atomicrmw volatile add ptr %26, i32 1 acq_rel, align 4
  br label %_ZNSt10shared_ptrIN2cv7GOriginEEC2ERKS2_.exit.i.i

_ZNSt10shared_ptrIN2cv7GOriginEEC2ERKS2_.exit.i.i: ; preds = %31, %28, %_ZN2cv6GFrameC2ERKS0_.exit
  %33 = getelementptr inbounds nuw i8, ptr %7, i64 16
  %34 = getelementptr inbounds nuw i8, ptr %2, i64 16
  %35 = load ptr, ptr %34, align 8
  store ptr %35, ptr %33, align 8
  %36 = getelementptr inbounds nuw i8, ptr %7, i64 24
  %37 = getelementptr inbounds nuw i8, ptr %2, i64 24
  %38 = load ptr, ptr %37, align 8
  store ptr %38, ptr %36, align 8
  %.not.i.i.i3.i.i = icmp eq ptr %38, null
  br i1 %.not.i.i.i3.i.i, label %_ZN2cv6GArrayINS_5Rect_IiEEEC2ERKS3_.exit, label %39

39:                                               ; preds = %_ZNSt10shared_ptrIN2cv7GOriginEEC2ERKS2_.exit.i.i
  %40 = getelementptr inbounds nuw i8, ptr %38, i64 8
  %41 = load i8, ptr @__libc_single_threaded, align 1
  %.not.i.i.i.i4.i.i = icmp eq i8 %41, 0
  br i1 %.not.i.i.i.i4.i.i, label %45, label %42

42:                                               ; preds = %39
  %43 = load i32, ptr %40, align 4
  %44 = add nsw i32 %43, 1
  store i32 %44, ptr %40, align 4
  br label %_ZN2cv6GArrayINS_5Rect_IiEEEC2ERKS3_.exit

45:                                               ; preds = %39
  %46 = atomicrmw volatile add ptr %40, i32 1 acq_rel, align 4
  br label %_ZN2cv6GArrayINS_5Rect_IiEEEC2ERKS3_.exit

_ZN2cv6GArrayINS_5Rect_IiEEEC2ERKS3_.exit:        ; preds = %_ZNSt10shared_ptrIN2cv7GOriginEEC2ERKS2_.exit.i.i, %42, %45
  %47 = load ptr, ptr %3, align 8
  store ptr %47, ptr %8, align 8
  %48 = getelementptr inbounds nuw i8, ptr %8, i64 8
  %49 = getelementptr inbounds nuw i8, ptr %3, i64 8
  %50 = load ptr, ptr %49, align 8
  store ptr %50, ptr %48, align 8
  %.not.i.i.i.i.i6 = icmp eq ptr %50, null
  br i1 %.not.i.i.i.i.i6, label %_ZNSt10shared_ptrIN2cv7GOriginEEC2ERKS2_.exit.i.i8, label %51

51:                                               ; preds = %_ZN2cv6GArrayINS_5Rect_IiEEEC2ERKS3_.exit
  %52 = getelementptr inbounds nuw i8, ptr %50, i64 8
  %53 = load i8, ptr @__libc_single_threaded, align 1
  %.not.i.i.i.i.i.i7 = icmp eq i8 %53, 0
  br i1 %.not.i.i.i.i.i.i7, label %57, label %54

54:                                               ; preds = %51
  %55 = load i32, ptr %52, align 4
  %56 = add nsw i32 %55, 1
  store i32 %56, ptr %52, align 4
  br label %_ZNSt10shared_ptrIN2cv7GOriginEEC2ERKS2_.exit.i.i8

57:                                               ; preds = %51
  %58 = atomicrmw volatile add ptr %52, i32 1 acq_rel, align 4
  br label %_ZNSt10shared_ptrIN2cv7GOriginEEC2ERKS2_.exit.i.i8

_ZNSt10shared_ptrIN2cv7GOriginEEC2ERKS2_.exit.i.i8: ; preds = %57, %54, %_ZN2cv6GArrayINS_5Rect_IiEEEC2ERKS3_.exit
  %59 = getelementptr inbounds nuw i8, ptr %8, i64 16
  %60 = getelementptr inbounds nuw i8, ptr %3, i64 16
  %61 = load ptr, ptr %60, align 8
  store ptr %61, ptr %59, align 8
  %62 = getelementptr inbounds nuw i8, ptr %8, i64 24
  %63 = getelementptr inbounds nuw i8, ptr %3, i64 24
  %64 = load ptr, ptr %63, align 8
  store ptr %64, ptr %62, align 8
  %.not.i.i.i3.i.i9 = icmp eq ptr %64, null
  br i1 %.not.i.i.i3.i.i9, label %_ZN2cv6GArrayIiEC2ERKS1_.exit, label %65

65:                                               ; preds = %_ZNSt10shared_ptrIN2cv7GOriginEEC2ERKS2_.exit.i.i8
  %66 = getelementptr inbounds nuw i8, ptr %64, i64 8
  %67 = load i8, ptr @__libc_single_threaded, align 1
  %.not.i.i.i.i4.i.i10 = icmp eq i8 %67, 0
  br i1 %.not.i.i.i.i4.i.i10, label %71, label %68

68:                                               ; preds = %65
  %69 = load i32, ptr %66, align 4
  %70 = add nsw i32 %69, 1
  store i32 %70, ptr %66, align 4
  br label %_ZN2cv6GArrayIiEC2ERKS1_.exit

71:                                               ; preds = %65
  %72 = atomicrmw volatile add ptr %66, i32 1 acq_rel, align 4
  br label %_ZN2cv6GArrayIiEC2ERKS1_.exit

_ZN2cv6GArrayIiEC2ERKS1_.exit:                    ; preds = %_ZNSt10shared_ptrIN2cv7GOriginEEC2ERKS2_.exit.i.i8, %68, %71
  invoke void @_ZN2cv12GKernelTypeMINS_4gapi2ot15GTrackFromFrameESt8functionIFSt5tupleIJNS_6GArrayINS_5Rect_IiEEEENS6_IiEENS6_ImEESA_EENS_6GFrameES9_SA_fEEE2onESD_S9_SA_f(ptr dead_on_unwind writable sret(%"class.std::tuple") align 8 %0, ptr noundef nonnull %6, ptr noundef nonnull %7, ptr noundef nonnull %8, float noundef %4)
          to label %73 unwind label %109

73:                                               ; preds = %_ZN2cv6GArrayIiEC2ERKS1_.exit
  call void @_ZN2cv6detail7GArrayUD2Ev(ptr noundef nonnull align 8 dereferenceable(32) %8) #18
  call void @_ZN2cv6detail7GArrayUD2Ev(ptr noundef nonnull align 8 dereferenceable(32) %7) #18
  %74 = load ptr, ptr %10, align 8
  %.not.i.i.i.i11 = icmp eq ptr %74, null
  br i1 %.not.i.i.i.i11, label %_ZN2cv6GFrameD2Ev.exit, label %75

75:                                               ; preds = %73
  %76 = getelementptr inbounds nuw i8, ptr %74, i64 8
  %77 = load atomic i64, ptr %76 acquire, align 8
  %78 = icmp eq i64 %77, 4294967297
  %79 = trunc i64 %77 to i32
  br i1 %78, label %80, label %85

80:                                               ; preds = %75
  store i32 0, ptr %76, align 8
  %81 = getelementptr inbounds nuw i8, ptr %74, i64 12
  store i32 0, ptr %81, align 4
  %82 = load ptr, ptr %74, align 8
  %83 = getelementptr inbounds nuw i8, ptr %82, i64 16
  %84 = load ptr, ptr %83, align 8
  call void %84(ptr noundef nonnull align 8 dereferenceable(16) %74) #18
  br label %_ZNSt16_Sp_counted_baseILN9__gnu_cxx12_Lock_policyE2EE24_M_release_last_use_coldEv.exit.sink.split.i.i.i.i.i

85:                                               ; preds = %75
  %86 = load i8, ptr @__libc_single_threaded, align 1
  %.not.i.i.i.i.i12 = icmp eq i8 %86, 0
  br i1 %.not.i.i.i.i.i12, label %89, label %87

87:                                               ; preds = %85
  %88 = add nsw i32 %79, -1
  store i32 %88, ptr %76, align 4
  br label %91

89:                                               ; preds = %85
  %90 = atomicrmw volatile add ptr %76, i32 -1 acq_rel, align 4
  br label %91

91:                                               ; preds = %89, %87
  %.0.i.i.i.i.i = phi i32 [ %79, %87 ], [ %90, %89 ]
  %92 = icmp eq i32 %.0.i.i.i.i.i, 1
  br i1 %92, label %93, label %_ZN2cv6GFrameD2Ev.exit

93:                                               ; preds = %91
  %94 = load ptr, ptr %74, align 8
  %95 = getelementptr inbounds nuw i8, ptr %94, i64 16
  %96 = load ptr, ptr %95, align 8
  call void %96(ptr noundef nonnull align 8 dereferenceable(16) %74) #18
  %97 = getelementptr inbounds nuw i8, ptr %74, i64 12
  %98 = load i8, ptr @__libc_single_threaded, align 1
  %.not.i.i.i.i.i.i.i = icmp eq i8 %98, 0
  br i1 %.not.i.i.i.i.i.i.i, label %102, label %99

99:                                               ; preds = %93
  %100 = load i32, ptr %97, align 4
  %101 = add nsw i32 %100, -1
  store i32 %101, ptr %97, align 4
  br label %104

102:                                              ; preds = %93
  %103 = atomicrmw volatile add ptr %97, i32 -1 acq_rel, align 4
  br label %104

104:                                              ; preds = %102, %99
  %.0.i.i.i.i.i.i.i = phi i32 [ %100, %99 ], [ %103, %102 ]
  %105 = icmp eq i32 %.0.i.i.i.i.i.i.i, 1
  br i1 %105, label %_ZNSt16_Sp_counted_baseILN9__gnu_cxx12_Lock_policyE2EE24_M_release_last_use_coldEv.exit.sink.split.i.i.i.i.i, label %_ZN2cv6GFrameD2Ev.exit

_ZNSt16_Sp_counted_baseILN9__gnu_cxx12_Lock_policyE2EE24_M_release_last_use_coldEv.exit.sink.split.i.i.i.i.i: ; preds = %104, %80
  %106 = load ptr, ptr %74, align 8
  %107 = getelementptr inbounds nuw i8, ptr %106, i64 24
  %108 = load ptr, ptr %107, align 8
  call void %108(ptr noundef nonnull align 8 dereferenceable(16) %74) #18
  br label %_ZN2cv6GFrameD2Ev.exit

_ZN2cv6GFrameD2Ev.exit:                           ; preds = %73, %91, %104, %_ZNSt16_Sp_counted_baseILN9__gnu_cxx12_Lock_policyE2EE24_M_release_last_use_coldEv.exit.sink.split.i.i.i.i.i
  ret void

109:                                              ; preds = %_ZN2cv6GArrayIiEC2ERKS1_.exit
  %110 = landingpad { ptr, i32 }
          cleanup
  call void @_ZN2cv6detail7GArrayUD2Ev(ptr noundef nonnull align 8 dereferenceable(32) %8) #18
  call void @_ZN2cv6detail7GArrayUD2Ev(ptr noundef nonnull align 8 dereferenceable(32) %7) #18
  call void @_ZN2cv6GFrameD2Ev(ptr noundef nonnull align 8 dereferenceable(16) %6) #18
  resume { ptr, i32 } %110
}